; Function Attrs: mustprogress nounwind uwtable
define hidden void @_ZN9ZDirectorC2Ev(ptr noundef nonnull align 8 dereferenceable(1009) %0) unnamed_addr #0 align 2 {
  tail call void @_ZN18ConcurrentGCThreadC2Ev(ptr noundef nonnull align 8 dereferenceable(918) %0) #11
  store ptr getelementptr inbounds inrange(-16, 256) (i8, ptr @_ZTV9ZDirector, i64 16), ptr %0, align 8
  %2 = getelementptr inbounds i8, ptr %0, i64 920
  tail call void @llvm.memset.p0.i64(ptr noundef nonnull align 8 dereferenceable(88) %2, i8 0, i64 88, i1 false)
  tail call void @_ZN15PlatformMonitorC1Ev(ptr noundef nonnull align 8 dereferenceable(88) %2) #11
  %3 = getelementptr inbounds i8, ptr %0, i64 1008
  store i8 0, ptr %3, align 8
  store ptr %0, ptr @_ZN9ZDirector9_directorE, align 8
  tail call void (ptr, ptr, ...) @_ZN11NamedThread8set_nameEPKcz(ptr noundef nonnull align 8 dereferenceable(916) %0, ptr noundef nonnull @.str) #11
  tail call void @_ZN18ConcurrentGCThread16create_and_startE14ThreadPriority(ptr noundef nonnull align 8 dereferenceable(918) %0, i32 noundef 9) #11
  ret void
}